; Function Attrs: mustprogress nofree norecurse nosync nounwind willreturn memory(readwrite, inaccessiblemem: none) uwtable
define dso_local ptr @detach_commit_buffer(ptr noundef readonly captures(none) %0, ptr noundef writeonly %1) local_unnamed_addr #11 {
  %3 = load ptr, ptr @the_repository, align 8, !tbaa !4
  %4 = getelementptr inbounds nuw i8, ptr %3, i64 24
  %5 = load ptr, ptr %4, align 8, !tbaa !12
  %6 = getelementptr inbounds nuw i8, ptr %5, i64 112
  %7 = load ptr, ptr %6, align 8, !tbaa !76
  %8 = getelementptr i8, ptr %0, i64 64
  %.val = load i32, ptr %8, align 8, !tbaa !77
  %9 = load i32, ptr %7, align 8, !tbaa !70
  %10 = udiv i32 %.val, %9
  %11 = urem i32 %.val, %9
  %12 = getelementptr inbounds nuw i8, ptr %7, i64 8
  %13 = load i32, ptr %12, align 8, !tbaa !71
  %.not.i.i = icmp ugt i32 %13, %10
  br i1 %.not.i.i, label %._crit_edge4.i.i, label %buffer_slab_peek.exit.thread

._crit_edge4.i.i:                                 ; preds = %2
  %.phi.trans.insert.i.i = getelementptr inbounds nuw i8, ptr %7, i64 16
  %.pre.i.i = load ptr, ptr %.phi.trans.insert.i.i, align 8, !tbaa !72
  %14 = zext i32 %10 to i64
  %15 = getelementptr inbounds nuw ptr, ptr %.pre.i.i, i64 %14
  %16 = load ptr, ptr %15, align 8, !tbaa !73
  %.not35.i.i = icmp eq ptr %16, null
  br i1 %.not35.i.i, label %buffer_slab_peek.exit.thread, label %buffer_slab_peek.exit

buffer_slab_peek.exit:                            ; preds = %._crit_edge4.i.i
  %17 = getelementptr inbounds nuw i8, ptr %7, i64 4
  %18 = load i32, ptr %17, align 4, !tbaa !67
  %19 = mul i32 %18, %11
  %20 = zext i32 %19 to i64
  %21 = getelementptr inbounds nuw %struct.commit_buffer, ptr %16, i64 %20
  %22 = load ptr, ptr %21, align 8, !tbaa !79
  %.not15 = icmp eq ptr %1, null
  br i1 %.not15, label %27, label %24

buffer_slab_peek.exit.thread:                     ; preds = %._crit_edge4.i.i, %2
  %.not14 = icmp eq ptr %1, null
  br i1 %.not14, label %28, label %23

23:                                               ; preds = %buffer_slab_peek.exit.thread
  store i64 0, ptr %1, align 8, !tbaa !82
  br label %28

24:                                               ; preds = %buffer_slab_peek.exit
  %25 = getelementptr inbounds nuw i8, ptr %21, i64 8
  %26 = load i64, ptr %25, align 8, !tbaa !81
  store i64 %26, ptr %1, align 8, !tbaa !82
  br label %27

27:                                               ; preds = %24, %buffer_slab_peek.exit
  tail call void @llvm.memset.p0.i64(ptr noundef nonnull align 8 dereferenceable(16) %21, i8 0, i64 16, i1 false)
  br label %28

28:                                               ; preds = %buffer_slab_peek.exit.thread, %23, %27
  %.0 = phi ptr [ %22, %27 ], [ null, %23 ], [ null, %buffer_slab_peek.exit.thread ]
  ret ptr %.0
}